Certificate Request:
    Data:
        Version: 1 (0x0)
        Subject: CN = root.yourdomain.com
        Subject Public Key Info:
            Public Key Algorithm: rsaEncryption
                RSA Public-Key: (2048 bit)
                Modulus:
                    00:f8:21:5c:23:17:da:0c:8f:cd:67:24:9c:b0:22:
                    9d:5b:41:81:f5:43:d7:a1:ec:3f:06:2b:5b:fe:95:
                    27:10:c5:ac:60:6b:31:ef:57:55:f8:98:ba:d1:91:
                    1f:b6:d4:92:33:73:ef:a7:f3:3d:bf:1c:50:d6:01:
                    ec:cd:08:04:56:9c:54:47:33:e9:3b:f1:c3:f9:c7:
                    40:9c:17:e3:09:ff:05:e7:21:6a:43:f4:d9:04:fe:
                    9d:68:81:75:e6:55:1c:80:27:f9:e1:72:ec:a4:ee:
                    e9:f7:3f:b7:04:bd:7a:9a:34:58:cd:b4:e4:e0:87:
                    74:b5:e5:12:58:2e:4a:c5:c4:5e:06:22:b6:6f:da:
                    a8:3b:11:b3:ff:3d:48:81:b5:f8:3a:6f:24:83:a3:
                    6e:de:b8:8d:db:06:e6:fd:73:64:9c:92:ca:33:0b:
                    5c:07:d9:49:4c:ff:94:b9:9b:da:92:60:75:d1:96:
                    0c:04:78:8d:7d:a6:54:16:57:70:5d:15:74:c9:07:
                    5f:90:67:cd:31:b3:dc:06:ad:31:ed:95:09:c1:d3:
                    0b:5b:0e:9f:f5:af:f3:95:b6:e0:0c:3a:3a:48:5d:
                    9f:1f:e5:15:4e:48:bf:72:ce:ac:04:87:02:0c:72:
                    42:01:40:d2:5b:8a:cd:6c:5e:e3:2a:16:24:24:94:
                    f5:1b
                Exponent: 65537 (0x10001)
        Attributes:
            a0:00
    Signature Algorithm: sha256WithRSAEncryption
         8b:6a:8c:ff:3c:bb:34:df:be:97:91:df:c0:dc:92:47:d2:27:
         e7:16:a5:cd:a5:30:47:ea:19:76:b3:dd:06:6b:09:a9:6f:97:
         2f:04:f4:6e:dd:4e:54:2b:78:6d:6b:1a:c1:a9:db:2b:39:53:
         66:ed:08:7e:dd:45:cf:0d:3a:fa:87:7c:53:f9:bf:d3:f9:ed:
         47:55:5c:8b:92:3f:de:ef:a3:df:ec:85:1b:30:85:05:3b:80:
         f3:e7:c9:ce:16:2e:79:58:f0:86:6d:61:7e:37:a6:ff:86:8c:
         04:3b:23:a1:72:62:fb:6b:ab:44:b6:1a:1c:64:4a:8a:5b:0e:
         a3:6b:3d:a8:bc:a4:7a:8e:83:8a:9b:b5:46:2e:ed:d0:21:35:
         23:67:83:92:f7:b9:f7:99:63:50:b7:75:6c:f0:4e:5c:b3:79:
         a6:cf:77:71:59:f2:a5:fa:a3:d8:7c:4b:0e:73:24:c8:ba:6b:
         f8:ae:ba:79:0d:79:28:0c:a1:2f:38:b1:9c:e3:38:42:0d:28:
         39:81:d0:95:5b:c8:73:be:17:e8:02:96:80:50:38:b7:30:22:
         ba:23:e7:7d:b5:81:c1:e6:b8:93:b1:d9:a9:52:71:cd:4d:54:
         c8:4f:f0:75:f6:7b:ed:bc:27:cc:87:43:13:cc:6b:cd:cc:fd:
         d7:81:c8:a8
-----BEGIN CERTIFICATE REQUEST-----
MIICYzCCAUsCAQAwHjEcMBoGA1UEAwwTcm9vdC55b3VyZG9tYWluLmNvbTCCASIw
DQYJKoZIhvcNAQEBBQADggEPADCCAQoCggEBAPghXCMX2gyPzWcknLAinVtBgfVD
16HsPwYrW/6VJxDFrGBrMe9XVfiYutGRH7bUkjNz76fzPb8cUNYB7M0IBFacVEcz
6Tvxw/nHQJwX4wn/BechakP02QT+nWiBdeZVHIAn+eFy7KTu6fc/twS9epo0WM20
5OCHdLXlElguSsXEXgYitm/aqDsRs/89SIG1+DpvJIOjbt64jdsG5v1zZJySyjML
XAfZSUz/lLmb2pJgddGWDAR4jX2mVBZXcF0VdMkHX5BnzTGz3AatMe2VCcHTC1sO
n/Wv85W24Aw6Okhdnx/lFU5Iv3LOrASHAgxyQgFA0luKzWxe4yoWJCSU9RsCAwEA
AaAAMA0GCSqGSIb3DQEBCwUAA4IBAQCLaoz/PLs0376Xkd/A3JJH0ifnFqXNpTBH
6hl2s90Gawmpb5cvBPRu3U5UK3htaxrBqdsrOVNm7Qh+3UXPDTr6h3xT+b/T+e1H
VVyLkj/e76Pf7IUbMIUFO4Dz58nOFi55WPCGbWF+N6b/howEOyOhcmL7a6tEthoc
ZEqKWw6jaz2ovKR6joOKm7VGLu3QITUjZ4OS97n3mWNQt3Vs8E5cs3mmz3dxWfKl
+qPYfEsOcyTIumv4rrp5DXkoDKEvOLGc4zhCDSg5gdCVW8hzvhfoApaAUDi3MCK6
I+d9tYHB5riTsdmpUnHNTVTIT/B19nvtvCfMh0MTzGvNzP3Xgcio
-----END CERTIFICATE REQUEST-----
